
main.o:     file format elf32-littlemips


Disassembly of section .text:

00000000 <build>:
   0:	27bdfff8 	addiu	sp,sp,-8
   4:	afbe0004 	sw	s8,4(sp)
   8:	03a0f025 	move	s8,sp
   c:	afc40008 	sw	a0,8(s8)
  10:	afc5000c 	sw	a1,12(s8)
  14:	afc60010 	sw	a2,16(s8)
  18:	8fc30008 	lw	v1,8(s8)
  1c:	8fc20010 	lw	v0,16(s8)
  20:	00431006 	srlv	v0,v1,v0
  24:	30420001 	andi	v0,v0,0x1
  28:	10400007 	beqz	v0,48 <build+0x48>
  2c:	00000000 	nop
  30:	8fc3000c 	lw	v1,12(s8)
  34:	8fc20010 	lw	v0,16(s8)
  38:	00431006 	srlv	v0,v1,v0
  3c:	30420001 	andi	v0,v0,0x1
  40:	1040000d 	beqz	v0,78 <build+0x78>
  44:	00000000 	nop
  48:	8fc30008 	lw	v1,8(s8)
  4c:	8fc20010 	lw	v0,16(s8)
  50:	00431006 	srlv	v0,v1,v0
  54:	30420001 	andi	v0,v0,0x1
  58:	1440000a 	bnez	v0,84 <build+0x84>
  5c:	00000000 	nop
  60:	8fc3000c 	lw	v1,12(s8)
  64:	8fc20010 	lw	v0,16(s8)
  68:	00431006 	srlv	v0,v1,v0
  6c:	30420001 	andi	v0,v0,0x1
  70:	10400004 	beqz	v0,84 <build+0x84>
  74:	00000000 	nop
  78:	240200ff 	li	v0,255
  7c:	10000002 	b	88 <build+0x88>
  80:	00000000 	nop
  84:	00001025 	move	v0,zero
  88:	03c0e825 	move	sp,s8
  8c:	8fbe0004 	lw	s8,4(sp)
  90:	27bd0008 	addiu	sp,sp,8
  94:	03e00008 	jr	ra
  98:	00000000 	nop

0000009c <main>:
  9c:	27bdfed8 	addiu	sp,sp,-296
  a0:	afbf0124 	sw	ra,292(sp)
  a4:	afbe0120 	sw	s8,288(sp)
  a8:	03a0f025 	move	s8,sp
  ac:	0c000000 	jal	0 <build>
  b0:	00000000 	nop
  b4:	afc20018 	sw	v0,24(s8)
  b8:	24020008 	li	v0,8
  bc:	afc2001c 	sw	v0,28(s8)
  c0:	afc00010 	sw	zero,16(s8)
  c4:	1000003c 	b	1b8 <main+0x11c>
  c8:	00000000 	nop
  cc:	8fc30010 	lw	v1,16(s8)
  d0:	8fc2001c 	lw	v0,28(s8)
  d4:	0062001a 	div	zero,v1,v0
  d8:	004001f4 	teq	v0,zero,0x7
  dc:	00001010 	mfhi	v0
  e0:	00401825 	move	v1,v0
  e4:	8fc20018 	lw	v0,24(s8)
  e8:	1443002f 	bne	v0,v1,1a8 <main+0x10c>
  ec:	00000000 	nop
  f0:	afc00014 	sw	zero,20(s8)
  f4:	10000010 	b	138 <main+0x9c>
  f8:	00000000 	nop
  fc:	8fc20014 	lw	v0,20(s8)
 100:	8fc30010 	lw	v1,16(s8)
 104:	24060005 	li	a2,5
 108:	00602825 	move	a1,v1
 10c:	00402025 	move	a0,v0
 110:	0c000000 	jal	0 <build>
 114:	00000000 	nop
 118:	00401825 	move	v1,v0
 11c:	8fc20014 	lw	v0,20(s8)
 120:	27c40010 	addiu	a0,s8,16
 124:	00821021 	addu	v0,a0,v0
 128:	a0430010 	sb	v1,16(v0)
 12c:	8fc20014 	lw	v0,20(s8)
 130:	24420001 	addiu	v0,v0,1
 134:	afc20014 	sw	v0,20(s8)
 138:	8fc20014 	lw	v0,20(s8)
 13c:	28420100 	slti	v0,v0,256
 140:	1440ffee 	bnez	v0,fc <main+0x60>
 144:	00000000 	nop
 148:	8fc20010 	lw	v0,16(s8)
 14c:	00021200 	sll	v0,v0,0x8
 150:	27c30020 	addiu	v1,s8,32
 154:	24060100 	li	a2,256
 158:	00602825 	move	a1,v1
 15c:	00402025 	move	a0,v0
 160:	0c000000 	jal	0 <build>
 164:	00000000 	nop
 168:	10400008 	beqz	v0,18c <main+0xf0>
 16c:	00000000 	nop
 170:	8fc50010 	lw	a1,16(s8)
 174:	3c020000 	lui	v0,0x0
 178:	24440000 	addiu	a0,v0,0
 17c:	0c000000 	jal	0 <build>
 180:	00000000 	nop
 184:	10000009 	b	1ac <main+0x110>
 188:	00000000 	nop
 18c:	8fc50010 	lw	a1,16(s8)
 190:	3c020000 	lui	v0,0x0
 194:	24440034 	addiu	a0,v0,52
 198:	0c000000 	jal	0 <build>
 19c:	00000000 	nop
 1a0:	10000002 	b	1ac <main+0x110>
 1a4:	00000000 	nop
 1a8:	00000000 	nop
 1ac:	8fc20010 	lw	v0,16(s8)
 1b0:	24420001 	addiu	v0,v0,1
 1b4:	afc20010 	sw	v0,16(s8)
 1b8:	8fc20010 	lw	v0,16(s8)
 1bc:	28420100 	slti	v0,v0,256
 1c0:	1440ffc2 	bnez	v0,cc <main+0x30>
 1c4:	00000000 	nop
 1c8:	0c000000 	jal	0 <build>
 1cc:	00000000 	nop
 1d0:	00402825 	move	a1,v0
 1d4:	3c020000 	lui	v0,0x0
 1d8:	2444004c 	addiu	a0,v0,76
 1dc:	0c000000 	jal	0 <build>
 1e0:	00000000 	nop
 1e4:	0c000000 	jal	0 <build>
 1e8:	00000000 	nop
 1ec:	00000000 	nop
 1f0:	03c0e825 	move	sp,s8
 1f4:	8fbf0124 	lw	ra,292(sp)
 1f8:	8fbe0120 	lw	s8,288(sp)
 1fc:	27bd0128 	addiu	sp,sp,296
 200:	03e00008 	jr	ra
 204:	00000000 	nop

Disassembly of section .reginfo:

00000000 <.reginfo>:
   0:	e000007c 	sc	zero,124(zero)
	...

Disassembly of section .MIPS.abiflags:

00000000 <.MIPS.abiflags>:
   0:	01200000 	0x1200000
   4:	01000101 	0x1000101
	...
  10:	00000001 	movf	zero,zero,$fcc0
  14:	00000000 	nop

Disassembly of section .pdr:

00000000 <.pdr>:
   0:	00000000 	nop
   4:	40000000 	mfc0	zero,c0_index
   8:	fffffffc 	sdc3	$31,-4(ra)
	...
  14:	00000008 	jr	zero
  18:	0000001e 	0x1e
  1c:	0000001f 	0x1f
  20:	00000000 	nop
  24:	c0000000 	ll	zero,0(zero)
  28:	fffffffc 	sdc3	$31,-4(ra)
	...
  34:	00000128 	0x128
  38:	0000001e 	0x1e
  3c:	0000001f 	0x1f

Disassembly of section .rodata:

00000000 <.rodata>:
   0:	21212120 	addi	at,t1,8480
   4:	6f727720 	0x6f727720
   8:	7420676e 	jalx	819db8 <main+0x819d1c>
   c:	736e6172 	0x736e6172
  10:	20726566 	addi	s2,v1,25958
  14:	66206f74 	0x66206f74
  18:	656d6172 	0x656d6172
  1c:	66756220 	0x66756220
  20:	20726566 	addi	s2,v1,25958
  24:	20726f66 	addi	s2,v1,28518
  28:	656e696c 	0x656e696c
  2c:	0a642520 	j	9909480 <main+0x99093e4>
  30:	00000000 	nop
  34:	62202d20 	0x62202d20
  38:	646c6975 	0x646c6975
  3c:	20676e69 	addi	a3,v1,28265
  40:	656e696c 	0x656e696c
  44:	0a642520 	j	9909480 <main+0x99093e4>
  48:	00000000 	nop
  4c:	6379630a 	0x6379630a
  50:	2073656c 	addi	s3,v1,25964
  54:	6425203d 	0x6425203d
  58:	Address 0x0000000000000058 is out of bounds.


Disassembly of section .ctors:

00000000 <.ctors>:
   0:	00000000 	nop

Disassembly of section .comment:

00000000 <.comment>:
   0:	43434700 	c0	0x1434700
   4:	4728203a 	c1	0x128203a
   8:	2029554e 	addi	t1,at,21838
   c:	2e322e38 	sltiu	s2,s1,11832
  10:	Address 0x0000000000000010 is out of bounds.


Disassembly of section .gnu.attributes:

00000000 <.gnu.attributes>:
   0:	00000f41 	0xf41
   4:	756e6700 	jalx	5b99c00 <main+0x5b99b64>
   8:	00070100 	sll	zero,a3,0x4
   c:	01040000 	0x1040000
